target datalayout = "e-m:e-p270:32:32-p271:32:32-p272:64:64-i64:64-i128:128-f80:128-n8:16:32:64-S128"
target triple = "x86_64-pc-linux-gnu"

%struct.UserData_ = type { double, i32, double, double, double, i32, i32, i32, i32 }

@stderr = external global ptr, align 8
@.str.55 = private unnamed_addr constant [16 x i8] c"ComputeSolution\00", align 1
@.str.74 = private unnamed_addr constant [39 x i8] c"\0AERROR: %s() returned a NULL pointer\0A\0A\00", align 1
@.str.75 = private unnamed_addr constant [29 x i8] c"\0AERROR: %s() returned = %d\0A\0A\00", align 1

; Function Attrs: nounwind uwtable
define internal i32 @check_retval(ptr noundef %0, ptr noundef %1, i32 noundef %2) #0 {
  %4 = alloca i32, align 4
  %5 = alloca ptr, align 8
  %6 = alloca ptr, align 8
  %7 = alloca i32, align 4
  %8 = alloca ptr, align 8
  %9 = alloca i32, align 4
  store ptr %0, ptr %5, align 8, !tbaa !17
  store ptr %1, ptr %6, align 8, !tbaa !37
  store i32 %2, ptr %7, align 4, !tbaa !4
  call void @llvm.lifetime.start.p0(i64 8, ptr %8) #8
  %10 = load i32, ptr %7, align 4, !tbaa !4
  %11 = icmp eq i32 %10, 0
  br i1 %11, label %12, label %19

12:                                               ; preds = %3
  %13 = load ptr, ptr %5, align 8, !tbaa !17
  %14 = icmp eq ptr %13, null
  br i1 %14, label %15, label %19

15:                                               ; preds = %12
  %16 = load ptr, ptr @stderr, align 8, !tbaa !26
  %17 = load ptr, ptr %6, align 8, !tbaa !37
  %18 = call i32 (ptr, ptr, ...) @fprintf(ptr noundef %16, ptr noundef @.str.74, ptr noundef %17) #8
  store i32 1, ptr %4, align 4
  store i32 1, ptr %9, align 4
  br label %36

19:                                               ; preds = %12, %3
  %20 = load i32, ptr %7, align 4, !tbaa !4
  %21 = icmp eq i32 %20, 1
  br i1 %21, label %22, label %34

22:                                               ; preds = %19
  %23 = load ptr, ptr %5, align 8, !tbaa !17
  store ptr %23, ptr %8, align 8, !tbaa !39
  %24 = load ptr, ptr %8, align 8, !tbaa !39
  %25 = load i32, ptr %24, align 4, !tbaa !4
  %26 = icmp slt i32 %25, 0
  br i1 %26, label %27, label %33

27:                                               ; preds = %22
  %28 = load ptr, ptr @stderr, align 8, !tbaa !26
  %29 = load ptr, ptr %6, align 8, !tbaa !37
  %30 = load ptr, ptr %8, align 8, !tbaa !39
  %31 = load i32, ptr %30, align 4, !tbaa !4
  %32 = call i32 (ptr, ptr, ...) @fprintf(ptr noundef %28, ptr noundef @.str.75, ptr noundef %29, i32 noundef %31) #8
  store i32 1, ptr %4, align 4
  store i32 1, ptr %9, align 4
  br label %36

33:                                               ; preds = %22
  br label %34

34:                                               ; preds = %33, %19
  br label %35

35:                                               ; preds = %34
  store i32 0, ptr %4, align 4
  store i32 1, ptr %9, align 4
  br label %36

36:                                               ; preds = %35, %27, %15
  call void @llvm.lifetime.end.p0(i64 8, ptr %8) #8
  %37 = load i32, ptr %4, align 4
  ret i32 %37
}

; Function Attrs: nounwind uwtable
define internal i32 @ComputeSolution(double noundef %0, ptr noundef %1, ptr noundef %2) #0 {
  %4 = alloca double, align 8
  %5 = alloca ptr, align 8
  %6 = alloca ptr, align 8
  %7 = alloca ptr, align 8
  store double %0, ptr %4, align 8, !tbaa !11
  store ptr %1, ptr %5, align 8, !tbaa !18
  store ptr %2, ptr %6, align 8, !tbaa !13
  call void @llvm.lifetime.start.p0(i64 8, ptr %7) #8
  %8 = load ptr, ptr %5, align 8, !tbaa !18
  %9 = call ptr @N_VGetArrayPointer(ptr noundef %8)
  store ptr %9, ptr %7, align 8, !tbaa !20
  %10 = load ptr, ptr %6, align 8, !tbaa !13
  %11 = getelementptr inbounds nuw %struct.UserData_, ptr %10, i32 0, i32 0
  %12 = load double, ptr %11, align 8, !tbaa !43
  %13 = load double, ptr %4, align 8, !tbaa !11
  %14 = fmul double %12, %13
  %15 = call double @cos(double noundef %14) #8, !tbaa !4
  %16 = load ptr, ptr %7, align 8, !tbaa !20
  %17 = getelementptr inbounds double, ptr %16, i64 0
  store double %15, ptr %17, align 8, !tbaa !11
  %18 = load ptr, ptr %6, align 8, !tbaa !13
  %19 = getelementptr inbounds nuw %struct.UserData_, ptr %18, i32 0, i32 0
  %20 = load double, ptr %19, align 8, !tbaa !43
  %21 = load double, ptr %4, align 8, !tbaa !11
  %22 = fmul double %20, %21
  %23 = call double @sin(double noundef %22) #8, !tbaa !4
  %24 = load ptr, ptr %7, align 8, !tbaa !20
  %25 = getelementptr inbounds double, ptr %24, i64 1
  store double %23, ptr %25, align 8, !tbaa !11
  call void @llvm.lifetime.end.p0(i64 8, ptr %7) #8
  ret i32 0
}

; Function Attrs: nounwind uwtable
define internal i32 @ComputeError(double noundef %0, ptr noundef %1, ptr noundef %2, ptr noundef %3, ptr noundef %4) #0 {
  %6 = alloca i32, align 4
  %7 = alloca double, align 8
  %8 = alloca ptr, align 8
  %9 = alloca ptr, align 8
  %10 = alloca ptr, align 8
  %11 = alloca ptr, align 8
  %12 = alloca ptr, align 8
  %13 = alloca i32, align 4
  %14 = alloca i32, align 4
  store double %0, ptr %7, align 8, !tbaa !11
  store ptr %1, ptr %8, align 8, !tbaa !18
  store ptr %2, ptr %9, align 8, !tbaa !18
  store ptr %3, ptr %10, align 8, !tbaa !20
  store ptr %4, ptr %11, align 8, !tbaa !13
  call void @llvm.lifetime.start.p0(i64 8, ptr %12) #8
  %15 = load ptr, ptr %8, align 8, !tbaa !18
  %16 = call ptr @N_VGetArrayPointer(ptr noundef %15)
  store ptr %16, ptr %12, align 8, !tbaa !20
  call void @llvm.lifetime.start.p0(i64 4, ptr %13) #8
  %17 = load double, ptr %7, align 8, !tbaa !11
  %18 = load ptr, ptr %9, align 8, !tbaa !18
  %19 = load ptr, ptr %11, align 8, !tbaa !13
  %20 = call i32 @ComputeSolution(double noundef %17, ptr noundef %18, ptr noundef %19)
  store i32 %20, ptr %13, align 4, !tbaa !4
  %21 = call i32 @check_retval(ptr noundef %13, ptr noundef @.str.55, i32 noundef 1)
  %22 = icmp ne i32 %21, 0
  br i1 %22, label %23, label %24

23:                                               ; preds = %5
  store i32 1, ptr %6, align 4
  store i32 1, ptr %14, align 4
  br label %44

24:                                               ; preds = %5
  %25 = load ptr, ptr %8, align 8, !tbaa !18
  %26 = load ptr, ptr %9, align 8, !tbaa !18
  %27 = load ptr, ptr %9, align 8, !tbaa !18
  call void @N_VLinearSum(double noundef 1.000000e+00, ptr noundef %25, double noundef -1.000000e+00, ptr noundef %26, ptr noundef %27)
  %28 = load ptr, ptr %12, align 8, !tbaa !20
  %29 = getelementptr inbounds double, ptr %28, i64 0
  %30 = load double, ptr %29, align 8, !tbaa !11
  %31 = load ptr, ptr %12, align 8, !tbaa !20
  %32 = getelementptr inbounds double, ptr %31, i64 0
  %33 = load double, ptr %32, align 8, !tbaa !11
  %34 = load ptr, ptr %12, align 8, !tbaa !20
  %35 = getelementptr inbounds double, ptr %34, i64 1
  %36 = load double, ptr %35, align 8, !tbaa !11
  %37 = load ptr, ptr %12, align 8, !tbaa !20
  %38 = getelementptr inbounds double, ptr %37, i64 1
  %39 = load double, ptr %38, align 8, !tbaa !11
  %40 = fmul double %36, %39
  %41 = call double @llvm.fmuladd.f64(double %30, double %33, double %40)
  %42 = fsub double %41, 1.000000e+00
  %43 = load ptr, ptr %10, align 8, !tbaa !20
  store double %42, ptr %43, align 8, !tbaa !11
  store i32 0, ptr %6, align 4
  store i32 1, ptr %14, align 4
  br label %44

44:                                               ; preds = %24, %23
  call void @llvm.lifetime.end.p0(i64 4, ptr %13) #8
  call void @llvm.lifetime.end.p0(i64 8, ptr %12) #8
  %45 = load i32, ptr %6, align 4
  ret i32 %45
}