; Function Attrs: nounwind uwtable
define internal fastcc noundef range(i32 0, 2) i32 @ComputeError(double noundef %0, ptr noundef %1, ptr noundef %2, ptr noundef nonnull writeonly captures(none) initializes((0, 8)) %3, ptr noundef readonly captures(none) %4) unnamed_addr #0 {
  %6 = tail call ptr @N_VGetArrayPointer(ptr noundef %1) #13
  %7 = tail call ptr @N_VGetArrayPointer(ptr noundef %2) #13
  %8 = load double, ptr %4, align 8, !tbaa !13
  %9 = fmul double %0, %8
  %10 = tail call double @cos(double noundef %9) #13, !tbaa !27
  store double %10, ptr %7, align 8, !tbaa !4
  %11 = load double, ptr %4, align 8, !tbaa !13
  %12 = fmul double %0, %11
  %13 = tail call double @sin(double noundef %12) #13, !tbaa !27
  %14 = getelementptr inbounds nuw i8, ptr %7, i64 8
  store double %13, ptr %14, align 8, !tbaa !4
  tail call void @N_VLinearSum(double noundef 1.000000e+00, ptr noundef %1, double noundef -1.000000e+00, ptr noundef %2, ptr noundef %2) #13
  %15 = load double, ptr %6, align 8, !tbaa !4
  %16 = getelementptr inbounds nuw i8, ptr %6, i64 8
  %17 = load double, ptr %16, align 8, !tbaa !4
  %18 = fmul double %17, %17
  %19 = tail call double @llvm.fmuladd.f64(double %15, double %15, double %18)
  %20 = fadd double %19, -1.000000e+00
  store double %20, ptr %3, align 8, !tbaa !4
  ret i32 0
}